target datalayout = "e-m:e-p270:32:32-p271:32:32-p272:64:64-i64:64-i128:128-f80:128-n8:16:32:64-S128"
target triple = "x86_64-pc-linux-gnu"

%"class.ncnn::YoloDetectionOutput" = type { %"class.ncnn::Layer", i32, i32, float, float, %"class.ncnn::Mat", ptr }
%"class.ncnn::Layer" = type { ptr, i8, i8, i8, i8, i8, i8, i8, i8, i8, i8, i8, i8, i8, i8, i8, i8, i8, i8, i8, i8, i32, ptr, i32, %"class.std::__cxx11::basic_string", %"class.std::__cxx11::basic_string", %"class.std::vector", %"class.std::vector", %"class.std::vector.3", %"class.std::vector.3" }
%"class.std::__cxx11::basic_string" = type { %"struct.std::__cxx11::basic_string<char>::_Alloc_hider", i64, %union.anon }
%"struct.std::__cxx11::basic_string<char>::_Alloc_hider" = type { ptr }
%union.anon = type { i64, [8 x i8] }
%"class.std::vector" = type { %"struct.std::_Vector_base" }
%"struct.std::_Vector_base" = type { %"struct.std::_Vector_base<int, std::allocator<int>>::_Vector_impl" }
%"struct.std::_Vector_base<int, std::allocator<int>>::_Vector_impl" = type { %"struct.std::_Vector_base<int, std::allocator<int>>::_Vector_impl_data" }
%"struct.std::_Vector_base<int, std::allocator<int>>::_Vector_impl_data" = type { ptr, ptr, ptr }
%"class.std::vector.3" = type { %"struct.std::_Vector_base.4" }
%"struct.std::_Vector_base.4" = type { %"struct.std::_Vector_base<ncnn::Mat, std::allocator<ncnn::Mat>>::_Vector_impl" }
%"struct.std::_Vector_base<ncnn::Mat, std::allocator<ncnn::Mat>>::_Vector_impl" = type { %"struct.std::_Vector_base<ncnn::Mat, std::allocator<ncnn::Mat>>::_Vector_impl_data" }
%"struct.std::_Vector_base<ncnn::Mat, std::allocator<ncnn::Mat>>::_Vector_impl_data" = type { ptr, ptr, ptr }
%"class.ncnn::Mat" = type { ptr, ptr, i64, i32, ptr, i32, i32, i32, i32, i32, i64 }
%"class.ncnn::ParamDict" = type { ptr, ptr }

; Function Attrs: mustprogress uwtable
define hidden noundef i32 @_ZN4ncnn19YoloDetectionOutput15create_pipelineERKNS_6OptionE(ptr noundef nonnull align 8 dereferenceable(304) %0, ptr noundef nonnull align 8 dereferenceable(64) %1) unnamed_addr #1 align 2 personality ptr @__gxx_personality_v0 {
  %3 = alloca ptr, align 8
  %4 = alloca ptr, align 8
  %5 = alloca %"class.ncnn::ParamDict", align 8
  %6 = alloca ptr, align 8
  %7 = alloca i32, align 4
  store ptr %0, ptr %3, align 8, !tbaa !4
  store ptr %1, ptr %4, align 8, !tbaa !39
  %8 = load ptr, ptr %3, align 8
  %9 = call noundef ptr @_ZN4ncnn16create_layer_cpuEi(i32 noundef 32)
  %10 = getelementptr inbounds nuw %"class.ncnn::YoloDetectionOutput", ptr %8, i32 0, i32 6
  store ptr %9, ptr %10, align 8, !tbaa !41
  call void @llvm.lifetime.start.p0(i64 16, ptr %5) #10
  call void @_ZN4ncnn9ParamDictC1Ev(ptr noundef nonnull align 8 dereferenceable(16) %5)
  invoke void @_ZN4ncnn9ParamDict3setEii(ptr noundef nonnull align 8 dereferenceable(16) %5, i32 noundef 0, i32 noundef 0)
          to label %11 unwind label %27

11:                                               ; preds = %2
  %12 = getelementptr inbounds nuw %"class.ncnn::YoloDetectionOutput", ptr %8, i32 0, i32 6
  %13 = load ptr, ptr %12, align 8, !tbaa !41
  %14 = load ptr, ptr %13, align 8, !tbaa !9
  %15 = getelementptr inbounds ptr, ptr %14, i64 2
  %16 = load ptr, ptr %15, align 8
  %17 = invoke noundef i32 %16(ptr noundef nonnull align 8 dereferenceable(208) %13, ptr noundef nonnull align 8 dereferenceable(16) %5)
          to label %18 unwind label %27

18:                                               ; preds = %11
  %19 = getelementptr inbounds nuw %"class.ncnn::YoloDetectionOutput", ptr %8, i32 0, i32 6
  %20 = load ptr, ptr %19, align 8, !tbaa !41
  %21 = load ptr, ptr %4, align 8, !tbaa !39
  %22 = load ptr, ptr %20, align 8, !tbaa !9
  %23 = getelementptr inbounds ptr, ptr %22, i64 4
  %24 = load ptr, ptr %23, align 8
  %25 = invoke noundef i32 %24(ptr noundef nonnull align 8 dereferenceable(208) %20, ptr noundef nonnull align 8 dereferenceable(64) %21)
          to label %26 unwind label %27

26:                                               ; preds = %18
  call void @_ZN4ncnn9ParamDictD1Ev(ptr noundef nonnull align 8 dereferenceable(16) %5) #10
  call void @llvm.lifetime.end.p0(i64 16, ptr %5) #10
  ret i32 0

27:                                               ; preds = %18, %11, %2
  %28 = landingpad { ptr, i32 }
          cleanup
  %29 = extractvalue { ptr, i32 } %28, 0
  store ptr %29, ptr %6, align 8
  %30 = extractvalue { ptr, i32 } %28, 1
  store i32 %30, ptr %7, align 4
  call void @_ZN4ncnn9ParamDictD1Ev(ptr noundef nonnull align 8 dereferenceable(16) %5) #10
  call void @llvm.lifetime.end.p0(i64 16, ptr %5) #10
  br label %31

31:                                               ; preds = %27
  %32 = load ptr, ptr %6, align 8
  %33 = load i32, ptr %7, align 4
  %34 = insertvalue { ptr, i32 } poison, ptr %32, 0
  %35 = insertvalue { ptr, i32 } %34, i32 %33, 1
  resume { ptr, i32 } %35
}