; Function Attrs: mustprogress uwtable
define hidden noundef i32 @_ZN4ncnn19YoloDetectionOutput15create_pipelineERKNS_6OptionE(ptr noundef nonnull align 8 captures(none) dereferenceable(304) initializes((296, 304)) %0, ptr noundef nonnull align 8 dereferenceable(64) %1) unnamed_addr #1 align 2 personality ptr @__gxx_personality_v0 {
  %3 = alloca %"class.ncnn::ParamDict", align 8
  %4 = tail call noundef ptr @_ZN4ncnn16create_layer_cpuEi(i32 noundef 32)
  %5 = getelementptr inbounds nuw i8, ptr %0, i64 296
  store ptr %4, ptr %5, align 8, !tbaa !46
  call void @llvm.lifetime.start.p0(i64 16, ptr nonnull %3) #9
  call void @_ZN4ncnn9ParamDictC1Ev(ptr noundef nonnull align 8 dereferenceable(16) %3)
  invoke void @_ZN4ncnn9ParamDict3setEii(ptr noundef nonnull align 8 dereferenceable(16) %3, i32 noundef 0, i32 noundef 0)
          to label %6 unwind label %19

6:                                                ; preds = %2
  %7 = load ptr, ptr %5, align 8, !tbaa !46
  %8 = load ptr, ptr %7, align 8, !tbaa !4
  %9 = getelementptr inbounds nuw i8, ptr %8, i64 16
  %10 = load ptr, ptr %9, align 8
  %11 = invoke noundef i32 %10(ptr noundef nonnull align 8 dereferenceable(208) %7, ptr noundef nonnull align 8 dereferenceable(16) %3)
          to label %12 unwind label %19

12:                                               ; preds = %6
  %13 = load ptr, ptr %5, align 8, !tbaa !46
  %14 = load ptr, ptr %13, align 8, !tbaa !4
  %15 = getelementptr inbounds nuw i8, ptr %14, i64 32
  %16 = load ptr, ptr %15, align 8
  %17 = invoke noundef i32 %16(ptr noundef nonnull align 8 dereferenceable(208) %13, ptr noundef nonnull align 8 dereferenceable(64) %1)
          to label %18 unwind label %19

18:                                               ; preds = %12
  call void @_ZN4ncnn9ParamDictD1Ev(ptr noundef nonnull align 8 dereferenceable(16) %3) #9
  call void @llvm.lifetime.end.p0(i64 16, ptr nonnull %3) #9
  ret i32 0

19:                                               ; preds = %12, %6, %2
  %20 = landingpad { ptr, i32 }
          cleanup
  call void @_ZN4ncnn9ParamDictD1Ev(ptr noundef nonnull align 8 dereferenceable(16) %3) #9
  call void @llvm.lifetime.end.p0(i64 16, ptr nonnull %3) #9
  resume { ptr, i32 } %20
}